target datalayout = "e-m:e-p270:32:32-p271:32:32-p272:64:64-i64:64-i128:128-f80:128-n8:16:32:64-S128"
target triple = "x86_64-pc-linux-gnu"

%struct.Gia_Man_t_ = type { ptr, ptr, i32, i32, i32, i32, ptr, ptr, i32, i32, i32, ptr, ptr, %struct.Vec_Int_t_, %struct.Vec_Int_t_, i32, i32, i32, %struct.Vec_Int_t_, ptr, ptr, ptr, i32, i32, i32, i32, ptr, ptr, ptr, ptr, ptr, i32, i32, ptr, i32, ptr, ptr, ptr, ptr, ptr, ptr, ptr, ptr, ptr, ptr, ptr, ptr, ptr, ptr, ptr, ptr, ptr, ptr, %struct.Vec_Int_t_, %struct.Vec_Int_t_, ptr, ptr, ptr, ptr, ptr, ptr, ptr, ptr, ptr, ptr, ptr, ptr, ptr, ptr, ptr, ptr, ptr, ptr, ptr, ptr, ptr, i32, float, float, ptr, ptr, i32, ptr, ptr, ptr, ptr, ptr, ptr, ptr, ptr, ptr, ptr, ptr, ptr, ptr, ptr, ptr, i64, i64, ptr, ptr, i32, i32, i32, i32, i32, i32, i32, i32, i32, i32, i32, i32, ptr, ptr, ptr, ptr, ptr, ptr, ptr, ptr, i32, i32, i32, ptr, i32, i32, ptr, ptr, ptr, ptr, ptr, ptr, i32, i32, ptr, %struct.Vec_Int_t_, %struct.Vec_Int_t_, %struct.Vec_Int_t_, ptr, ptr, ptr, i32, i32, i32, i32, ptr, ptr, ptr, ptr, ptr }
%struct.Vec_Int_t_ = type { i32, i32, ptr }
%struct.Gia_Obj_t_ = type <{ i64, i32 }>

; Function Attrs: inlinehint nounwind uwtable
define internal i32 @Vec_IntEntry(ptr noundef %0, i32 noundef %1) #1 {
  %3 = alloca ptr, align 8
  %4 = alloca i32, align 4
  store ptr %0, ptr %3, align 8, !tbaa !41
  store i32 %1, ptr %4, align 4, !tbaa !32
  %5 = load ptr, ptr %3, align 8, !tbaa !41
  %6 = getelementptr inbounds nuw %struct.Vec_Int_t_, ptr %5, i32 0, i32 2
  %7 = load ptr, ptr %6, align 8, !tbaa !45
  %8 = load i32, ptr %4, align 4, !tbaa !32
  %9 = sext i32 %8 to i64
  %10 = getelementptr inbounds i32, ptr %7, i64 %9
  %11 = load i32, ptr %10, align 4, !tbaa !32
  ret i32 %11
}

; Function Attrs: inlinehint nounwind uwtable
define internal ptr @Gia_ManCo(ptr noundef %0, i32 noundef %1) #1 {
  %3 = alloca ptr, align 8
  %4 = alloca i32, align 4
  store ptr %0, ptr %3, align 8, !tbaa !3
  store i32 %1, ptr %4, align 4, !tbaa !32
  %5 = load ptr, ptr %3, align 8, !tbaa !3
  %6 = load ptr, ptr %3, align 8, !tbaa !3
  %7 = getelementptr inbounds nuw %struct.Gia_Man_t_, ptr %6, i32 0, i32 12
  %8 = load ptr, ptr %7, align 8, !tbaa !38
  %9 = load i32, ptr %4, align 4, !tbaa !32
  %10 = call i32 @Vec_IntEntry(ptr noundef %8, i32 noundef %9)
  %11 = call ptr @Gia_ManObj(ptr noundef %5, i32 noundef %10)
  ret ptr %11
}

; Function Attrs: inlinehint nounwind uwtable
define internal i32 @Vec_IntSize(ptr noundef %0) #1 {
  %2 = alloca ptr, align 8
  store ptr %0, ptr %2, align 8, !tbaa !41
  %3 = load ptr, ptr %2, align 8, !tbaa !41
  %4 = getelementptr inbounds nuw %struct.Vec_Int_t_, ptr %3, i32 0, i32 1
  %5 = load i32, ptr %4, align 4, !tbaa !42
  ret i32 %5
}

; Function Attrs: inlinehint nounwind uwtable
define internal ptr @Gia_ObjFanin0(ptr noundef %0) #1 {
  %2 = alloca ptr, align 8
  store ptr %0, ptr %2, align 8, !tbaa !8
  %3 = load ptr, ptr %2, align 8, !tbaa !8
  %4 = load ptr, ptr %2, align 8, !tbaa !8
  %5 = load i64, ptr %4, align 4
  %6 = and i64 %5, 536870911
  %7 = trunc i64 %6 to i32
  %8 = sext i32 %7 to i64
  %9 = sub i64 0, %8
  %10 = getelementptr inbounds %struct.Gia_Obj_t_, ptr %3, i64 %9
  ret ptr %10
}

; Function Attrs: inlinehint nounwind uwtable
define internal i32 @Gia_ManBufNum(ptr noundef %0) #1 {
  %2 = alloca ptr, align 8
  store ptr %0, ptr %2, align 8, !tbaa !3
  %3 = load ptr, ptr %2, align 8, !tbaa !3
  %4 = getelementptr inbounds nuw %struct.Gia_Man_t_, ptr %3, i32 0, i32 10
  %5 = load i32, ptr %4, align 8, !tbaa !40
  ret i32 %5
}

; Function Attrs: inlinehint nounwind uwtable
define internal i32 @Gia_ObjIsBuf(ptr noundef %0) #1 {
  %2 = alloca ptr, align 8
  store ptr %0, ptr %2, align 8, !tbaa !8
  %3 = load ptr, ptr %2, align 8, !tbaa !8
  %4 = load i64, ptr %3, align 4
  %5 = and i64 %4, 536870911
  %6 = trunc i64 %5 to i32
  %7 = load ptr, ptr %2, align 8, !tbaa !8
  %8 = load i64, ptr %7, align 4
  %9 = lshr i64 %8, 32
  %10 = and i64 %9, 536870911
  %11 = trunc i64 %10 to i32
  %12 = icmp eq i32 %6, %11
  br i1 %12, label %13, label %27

13:                                               ; preds = %1
  %14 = load ptr, ptr %2, align 8, !tbaa !8
  %15 = load i64, ptr %14, align 4
  %16 = and i64 %15, 536870911
  %17 = trunc i64 %16 to i32
  %18 = icmp ne i32 %17, 536870911
  br i1 %18, label %19, label %27

19:                                               ; preds = %13
  %20 = load ptr, ptr %2, align 8, !tbaa !8
  %21 = load i64, ptr %20, align 4
  %22 = lshr i64 %21, 31
  %23 = and i64 %22, 1
  %24 = trunc i64 %23 to i32
  %25 = icmp ne i32 %24, 0
  %26 = xor i1 %25, true
  br label %27

27:                                               ; preds = %19, %13, %1
  %28 = phi i1 [ false, %13 ], [ false, %1 ], [ %26, %19 ]
  %29 = zext i1 %28 to i32
  ret i32 %29
}

; Function Attrs: inlinehint nounwind uwtable
define internal i32 @Gia_ObjIsAnd(ptr noundef %0) #1 {
  %2 = alloca ptr, align 8
  store ptr %0, ptr %2, align 8, !tbaa !8
  %3 = load ptr, ptr %2, align 8, !tbaa !8
  %4 = load i64, ptr %3, align 4
  %5 = lshr i64 %4, 31
  %6 = and i64 %5, 1
  %7 = trunc i64 %6 to i32
  %8 = icmp ne i32 %7, 0
  br i1 %8, label %15, label %9

9:                                                ; preds = %1
  %10 = load ptr, ptr %2, align 8, !tbaa !8
  %11 = load i64, ptr %10, align 4
  %12 = and i64 %11, 536870911
  %13 = trunc i64 %12 to i32
  %14 = icmp ne i32 %13, 536870911
  br label %15

15:                                               ; preds = %9, %1
  %16 = phi i1 [ false, %1 ], [ %14, %9 ]
  %17 = zext i1 %16 to i32
  ret i32 %17
}

; Function Attrs: inlinehint nounwind uwtable
define internal ptr @Gia_ManObj(ptr noundef %0, i32 noundef %1) #1 {
  %3 = alloca ptr, align 8
  %4 = alloca i32, align 4
  store ptr %0, ptr %3, align 8, !tbaa !3
  store i32 %1, ptr %4, align 4, !tbaa !32
  %5 = load ptr, ptr %3, align 8, !tbaa !3
  %6 = getelementptr inbounds nuw %struct.Gia_Man_t_, ptr %5, i32 0, i32 6
  %7 = load ptr, ptr %6, align 8, !tbaa !33
  %8 = load i32, ptr %4, align 4, !tbaa !32
  %9 = sext i32 %8 to i64
  %10 = getelementptr inbounds %struct.Gia_Obj_t_, ptr %7, i64 %9
  ret ptr %10
}

; Function Attrs: nounwind uwtable
define i32 @Gia_ManCombMarkUsed(ptr noundef %0) #0 {
  %2 = alloca ptr, align 8
  %3 = alloca ptr, align 8
  %4 = alloca i32, align 4
  %5 = alloca i32, align 4
  store ptr %0, ptr %2, align 8, !tbaa !3
  call void @llvm.lifetime.start.p0(i64 8, ptr %3) #8
  call void @llvm.lifetime.start.p0(i64 4, ptr %4) #8
  call void @llvm.lifetime.start.p0(i64 4, ptr %5) #8
  store i32 0, ptr %5, align 4, !tbaa !32
  store i32 0, ptr %4, align 4, !tbaa !32
  br label %6

6:                                                ; preds = %38, %1
  %7 = load i32, ptr %4, align 4, !tbaa !32
  %8 = load ptr, ptr %2, align 8, !tbaa !3
  %9 = getelementptr inbounds nuw %struct.Gia_Man_t_, ptr %8, i32 0, i32 4
  %10 = load i32, ptr %9, align 8, !tbaa !34
  %11 = icmp slt i32 %7, %10
  br i1 %11, label %12, label %17

12:                                               ; preds = %6
  %13 = load ptr, ptr %2, align 8, !tbaa !3
  %14 = load i32, ptr %4, align 4, !tbaa !32
  %15 = call ptr @Gia_ManObj(ptr noundef %13, i32 noundef %14)
  store ptr %15, ptr %3, align 8, !tbaa !8
  %16 = icmp ne ptr %15, null
  br label %17

17:                                               ; preds = %12, %6
  %18 = phi i1 [ false, %6 ], [ %16, %12 ]
  br i1 %18, label %19, label %41

19:                                               ; preds = %17
  %20 = load ptr, ptr %3, align 8, !tbaa !8
  %21 = call i32 @Gia_ObjIsAnd(ptr noundef %20)
  %22 = icmp ne i32 %21, 0
  br i1 %22, label %23, label %28

23:                                               ; preds = %19
  %24 = load ptr, ptr %3, align 8, !tbaa !8
  %25 = call i32 @Gia_ObjIsBuf(ptr noundef %24)
  %26 = icmp ne i32 %25, 0
  %27 = xor i1 %26, true
  br label %28

28:                                               ; preds = %23, %19
  %29 = phi i1 [ false, %19 ], [ %27, %23 ]
  %30 = zext i1 %29 to i32
  %31 = load ptr, ptr %3, align 8, !tbaa !8
  %32 = zext i32 %30 to i64
  %33 = load i64, ptr %31, align 4
  %34 = and i64 %32, 1
  %35 = shl i64 %34, 30
  %36 = and i64 %33, -1073741825
  %37 = or i64 %36, %35
  store i64 %37, ptr %31, align 4
  br label %38

38:                                               ; preds = %28
  %39 = load i32, ptr %4, align 4, !tbaa !32
  %40 = add nsw i32 %39, 1
  store i32 %40, ptr %4, align 4, !tbaa !32
  br label %6, !llvm.loop !35

41:                                               ; preds = %17
  %42 = load ptr, ptr %2, align 8, !tbaa !3
  %43 = call i32 @Gia_ManBufNum(ptr noundef %42)
  %44 = icmp ne i32 %43, 0
  br i1 %44, label %45, label %46

45:                                               ; preds = %41
  br label %50

46:                                               ; preds = %41
  %47 = load ptr, ptr %2, align 8, !tbaa !3
  %48 = getelementptr inbounds nuw %struct.Gia_Man_t_, ptr %47, i32 0, i32 4
  %49 = load i32, ptr %48, align 8, !tbaa !34
  br label %50

50:                                               ; preds = %46, %45
  %51 = phi i32 [ 0, %45 ], [ %49, %46 ]
  store i32 %51, ptr %4, align 4, !tbaa !32
  br label %52

52:                                               ; preds = %78, %50
  %53 = load i32, ptr %4, align 4, !tbaa !32
  %54 = load ptr, ptr %2, align 8, !tbaa !3
  %55 = getelementptr inbounds nuw %struct.Gia_Man_t_, ptr %54, i32 0, i32 4
  %56 = load i32, ptr %55, align 8, !tbaa !34
  %57 = icmp slt i32 %53, %56
  br i1 %57, label %58, label %63

58:                                               ; preds = %52
  %59 = load ptr, ptr %2, align 8, !tbaa !3
  %60 = load i32, ptr %4, align 4, !tbaa !32
  %61 = call ptr @Gia_ManObj(ptr noundef %59, i32 noundef %60)
  store ptr %61, ptr %3, align 8, !tbaa !8
  %62 = icmp ne ptr %61, null
  br label %63

63:                                               ; preds = %58, %52
  %64 = phi i1 [ false, %52 ], [ %62, %58 ]
  br i1 %64, label %65, label %81

65:                                               ; preds = %63
  %66 = load ptr, ptr %3, align 8, !tbaa !8
  %67 = call i32 @Gia_ObjIsBuf(ptr noundef %66)
  %68 = icmp ne i32 %67, 0
  br i1 %68, label %70, label %69

69:                                               ; preds = %65
  br label %77

70:                                               ; preds = %65
  %71 = load ptr, ptr %2, align 8, !tbaa !3
  %72 = load ptr, ptr %3, align 8, !tbaa !8
  %73 = call ptr @Gia_ObjFanin0(ptr noundef %72)
  %74 = call i32 @Gia_ManCombMarkUsed_rec(ptr noundef %71, ptr noundef %73)
  %75 = load i32, ptr %5, align 4, !tbaa !32
  %76 = add nsw i32 %75, %74
  store i32 %76, ptr %5, align 4, !tbaa !32
  br label %77

77:                                               ; preds = %70, %69
  br label %78

78:                                               ; preds = %77
  %79 = load i32, ptr %4, align 4, !tbaa !32
  %80 = add nsw i32 %79, 1
  store i32 %80, ptr %4, align 4, !tbaa !32
  br label %52, !llvm.loop !37

81:                                               ; preds = %63
  store i32 0, ptr %4, align 4, !tbaa !32
  br label %82

82:                                               ; preds = %103, %81
  %83 = load i32, ptr %4, align 4, !tbaa !32
  %84 = load ptr, ptr %2, align 8, !tbaa !3
  %85 = getelementptr inbounds nuw %struct.Gia_Man_t_, ptr %84, i32 0, i32 12
  %86 = load ptr, ptr %85, align 8, !tbaa !38
  %87 = call i32 @Vec_IntSize(ptr noundef %86)
  %88 = icmp slt i32 %83, %87
  br i1 %88, label %89, label %94

89:                                               ; preds = %82
  %90 = load ptr, ptr %2, align 8, !tbaa !3
  %91 = load i32, ptr %4, align 4, !tbaa !32
  %92 = call ptr @Gia_ManCo(ptr noundef %90, i32 noundef %91)
  store ptr %92, ptr %3, align 8, !tbaa !8
  %93 = icmp ne ptr %92, null
  br label %94

94:                                               ; preds = %89, %82
  %95 = phi i1 [ false, %82 ], [ %93, %89 ]
  br i1 %95, label %96, label %106

96:                                               ; preds = %94
  %97 = load ptr, ptr %2, align 8, !tbaa !3
  %98 = load ptr, ptr %3, align 8, !tbaa !8
  %99 = call ptr @Gia_ObjFanin0(ptr noundef %98)
  %100 = call i32 @Gia_ManCombMarkUsed_rec(ptr noundef %97, ptr noundef %99)
  %101 = load i32, ptr %5, align 4, !tbaa !32
  %102 = add nsw i32 %101, %100
  store i32 %102, ptr %5, align 4, !tbaa !32
  br label %103

103:                                              ; preds = %96
  %104 = load i32, ptr %4, align 4, !tbaa !32
  %105 = add nsw i32 %104, 1
  store i32 %105, ptr %4, align 4, !tbaa !32
  br label %82, !llvm.loop !39

106:                                              ; preds = %94
  %107 = load i32, ptr %5, align 4, !tbaa !32
  call void @llvm.lifetime.end.p0(i64 4, ptr %5) #8
  call void @llvm.lifetime.end.p0(i64 4, ptr %4) #8
  call void @llvm.lifetime.end.p0(i64 8, ptr %3) #8
  ret i32 %107
}